; Function Attrs: nounwind uwtable
define dso_local i64 @enum_out(ptr noundef readonly captures(none) %0) local_unnamed_addr #0 {
  %2 = getelementptr inbounds nuw i8, ptr %0, i64 32
  %3 = load i64, ptr %2, align 8
  %4 = and i64 %3, 4294967295
  %5 = tail call ptr @SearchSysCache1(i32 noundef 23, i64 noundef %4) #8
  %.not = icmp eq ptr %5, null
  br i1 %.not, label %6, label %11

6:                                                ; preds = %1
  %7 = trunc i64 %3 to i32
  %8 = tail call zeroext i1 @errstart_cold(i32 noundef 21, ptr noundef null) #9
  tail call void @llvm.assume(i1 %8)
  %9 = tail call i32 @errcode(i32 noundef 50462850) #8
  %10 = tail call i32 (ptr, ...) @errmsg(ptr noundef nonnull @.str.2, i32 noundef %7) #8
  tail call void @errfinish(ptr noundef nonnull @.str.1, i32 noundef 167, ptr noundef nonnull @__func__.enum_out) #8
  unreachable

11:                                               ; preds = %1
  %12 = getelementptr i8, ptr %5, i64 16
  %.val = load ptr, ptr %12, align 8
  %13 = getelementptr inbounds nuw i8, ptr %.val, i64 22
  %14 = load i8, ptr %13, align 2
  %15 = zext i8 %14 to i64
  %16 = getelementptr inbounds nuw i8, ptr %.val, i64 %15
  %17 = getelementptr inbounds nuw i8, ptr %16, i64 12
  %18 = tail call ptr @pstrdup(ptr noundef nonnull %17) #8
  tail call void @ReleaseSysCache(ptr noundef nonnull %5) #8
  %19 = ptrtoint ptr %18 to i64
  ret i64 %19
}